; Function Attrs: mustprogress nounwind uwtable
define void @_ZN6casadi15KinsolInterfaceD2Ev(ptr noundef nonnull align 8 dereferenceable(1696) %0) unnamed_addr #4 align 2 personality ptr @__gxx_personality_v0 {
  store ptr getelementptr inbounds ({ [117 x ptr], [3 x ptr] }, ptr @_ZTVN6casadi15KinsolInterfaceE, i64 0, i32 0, i64 2), ptr %0, align 8
  %2 = getelementptr inbounds i8, ptr %0, i64 1520
  store ptr getelementptr inbounds ({ [117 x ptr], [3 x ptr] }, ptr @_ZTVN6casadi15KinsolInterfaceE, i64 0, i32 1, i64 2), ptr %2, align 8
  %3 = getelementptr inbounds i8, ptr %0, i64 1592
  %4 = load ptr, ptr %3, align 8
  %.not = icmp eq ptr %4, null
  br i1 %.not, label %6, label %5

5:                                                ; preds = %1
  invoke void @N_VDestroy_Serial(ptr noundef nonnull %4)
          to label %6 unwind label %13

6:                                                ; preds = %5, %1
  %7 = getelementptr inbounds i8, ptr %0, i64 1600
  %8 = load ptr, ptr %7, align 8
  %.not2 = icmp eq ptr %8, null
  br i1 %.not2, label %10, label %9

9:                                                ; preds = %6
  invoke void @N_VDestroy_Serial(ptr noundef nonnull %8)
          to label %10 unwind label %13

10:                                               ; preds = %9, %6
  invoke void @_ZN6casadi13ProtoFunction9clear_memEv(ptr noundef nonnull align 8 dereferenceable(168) %0)
          to label %11 unwind label %13

11:                                               ; preds = %10
  %12 = getelementptr inbounds i8, ptr %0, i64 1688
  tail call void @_ZN6casadi8FunctionD1Ev(ptr noundef nonnull align 8 dereferenceable(8) %12) #19
  tail call void @_ZN6casadi10RootfinderD2Ev(ptr noundef nonnull align 8 dereferenceable(1592) %0) #19
  ret void

13:                                               ; preds = %10, %9, %5
  %14 = landingpad { ptr, i32 }
          catch ptr null
  %15 = extractvalue { ptr, i32 } %14, 0
  tail call void @__clang_call_terminate(ptr %15) #22
  unreachable
}